target datalayout = "e-m:e-p270:32:32-p271:32:32-p272:64:64-i64:64-i128:128-f80:128-n8:16:32:64-S128"
target triple = "x86_64-unknown-linux-gnu"

%struct.ecc_set_type = type { i32, i32, ptr, ptr, ptr, ptr, ptr, ptr, ptr, ptr, i32, i32, i32 }

; Function Attrs: nounwind uwtable
define i32 @wc_ecc_get_curve_id_from_params(i32 noundef %fieldSize, ptr noundef %prime, i32 noundef %primeSz, ptr noundef %Af, i32 noundef %AfSz, ptr noundef %Bf, i32 noundef %BfSz, ptr noundef %order, i32 noundef %orderSz, ptr noundef %Gx, i32 noundef %GxSz, ptr noundef %Gy, i32 noundef %GySz, i32 noundef %cofactor) #0 {
entry:
  %retval = alloca i32, align 4
  %fieldSize.addr = alloca i32, align 4
  %prime.addr = alloca ptr, align 8
  %primeSz.addr = alloca i32, align 4
  %Af.addr = alloca ptr, align 8
  %AfSz.addr = alloca i32, align 4
  %Bf.addr = alloca ptr, align 8
  %BfSz.addr = alloca i32, align 4
  %order.addr = alloca ptr, align 8
  %orderSz.addr = alloca i32, align 4
  %Gx.addr = alloca ptr, align 8
  %GxSz.addr = alloca i32, align 4
  %Gy.addr = alloca ptr, align 8
  %GySz.addr = alloca i32, align 4
  %cofactor.addr = alloca i32, align 4
  %idx = alloca i32, align 4
  %curveSz = alloca i32, align 4
  store i32 %fieldSize, ptr %fieldSize.addr, align 4
  store ptr %prime, ptr %prime.addr, align 8
  store i32 %primeSz, ptr %primeSz.addr, align 4
  store ptr %Af, ptr %Af.addr, align 8
  store i32 %AfSz, ptr %AfSz.addr, align 4
  store ptr %Bf, ptr %Bf.addr, align 8
  store i32 %BfSz, ptr %BfSz.addr, align 4
  store ptr %order, ptr %order.addr, align 8
  store i32 %orderSz, ptr %orderSz.addr, align 4
  store ptr %Gx, ptr %Gx.addr, align 8
  store i32 %GxSz, ptr %GxSz.addr, align 4
  store ptr %Gy, ptr %Gy.addr, align 8
  store i32 %GySz, ptr %GySz.addr, align 4
  store i32 %cofactor, ptr %cofactor.addr, align 4
  %0 = load ptr, ptr %prime.addr, align 8
  %cmp = icmp eq ptr %0, null
  br i1 %cmp, label %if.then, label %lor.lhs.false

lor.lhs.false:                                    ; preds = %entry
  %1 = load ptr, ptr %Af.addr, align 8
  %cmp1 = icmp eq ptr %1, null
  br i1 %cmp1, label %if.then, label %lor.lhs.false2

lor.lhs.false2:                                   ; preds = %lor.lhs.false
  %2 = load ptr, ptr %Bf.addr, align 8
  %cmp3 = icmp eq ptr %2, null
  br i1 %cmp3, label %if.then, label %lor.lhs.false4

lor.lhs.false4:                                   ; preds = %lor.lhs.false2
  %3 = load ptr, ptr %order.addr, align 8
  %cmp5 = icmp eq ptr %3, null
  br i1 %cmp5, label %if.then, label %lor.lhs.false6

lor.lhs.false6:                                   ; preds = %lor.lhs.false4
  %4 = load ptr, ptr %Gx.addr, align 8
  %cmp7 = icmp eq ptr %4, null
  br i1 %cmp7, label %if.then, label %lor.lhs.false8

lor.lhs.false8:                                   ; preds = %lor.lhs.false6
  %5 = load ptr, ptr %Gy.addr, align 8
  %cmp9 = icmp eq ptr %5, null
  br i1 %cmp9, label %if.then, label %if.end

if.then:                                          ; preds = %lor.lhs.false8, %lor.lhs.false6, %lor.lhs.false4, %lor.lhs.false2, %lor.lhs.false, %entry
  store i32 -173, ptr %retval, align 4
  br label %return

if.end:                                           ; preds = %lor.lhs.false8
  %6 = load i32, ptr %fieldSize.addr, align 4
  %add = add nsw i32 %6, 1
  %div = sdiv i32 %add, 8
  store i32 %div, ptr %curveSz, align 4
  store i32 0, ptr %idx, align 4
  br label %for.cond

for.cond:                                         ; preds = %for.inc, %if.end
  %7 = load i32, ptr %idx, align 4
  %idxprom = sext i32 %7 to i64
  %arrayidx = getelementptr inbounds [6 x %struct.ecc_set_type], ptr @ecc_sets, i64 0, i64 %idxprom
  %size = getelementptr inbounds %struct.ecc_set_type, ptr %arrayidx, i32 0, i32 0
  %8 = load i32, ptr %size, align 8
  %cmp10 = icmp ne i32 %8, 0
  br i1 %cmp10, label %for.body, label %for.end

for.body:                                         ; preds = %for.cond
  %9 = load i32, ptr %curveSz, align 4
  %10 = load i32, ptr %idx, align 4
  %idxprom11 = sext i32 %10 to i64
  %arrayidx12 = getelementptr inbounds [6 x %struct.ecc_set_type], ptr @ecc_sets, i64 0, i64 %idxprom11
  %size13 = getelementptr inbounds %struct.ecc_set_type, ptr %arrayidx12, i32 0, i32 0
  %11 = load i32, ptr %size13, align 8
  %cmp14 = icmp eq i32 %9, %11
  br i1 %cmp14, label %if.then15, label %if.end56

if.then15:                                        ; preds = %for.body
  %12 = load i32, ptr %idx, align 4
  %idxprom16 = sext i32 %12 to i64
  %arrayidx17 = getelementptr inbounds [6 x %struct.ecc_set_type], ptr @ecc_sets, i64 0, i64 %idxprom16
  %prime18 = getelementptr inbounds %struct.ecc_set_type, ptr %arrayidx17, i32 0, i32 3
  %13 = load ptr, ptr %prime18, align 8
  %14 = load ptr, ptr %prime.addr, align 8
  %15 = load i32, ptr %primeSz.addr, align 4
  %call = call i32 @wc_ecc_cmp_param(ptr noundef %13, ptr noundef %14, i32 noundef %15, i32 noundef 2)
  %cmp19 = icmp eq i32 %call, 0
  br i1 %cmp19, label %land.lhs.true, label %if.end55

land.lhs.true:                                    ; preds = %if.then15
  %16 = load i32, ptr %idx, align 4
  %idxprom20 = sext i32 %16 to i64
  %arrayidx21 = getelementptr inbounds [6 x %struct.ecc_set_type], ptr @ecc_sets, i64 0, i64 %idxprom20
  %Af22 = getelementptr inbounds %struct.ecc_set_type, ptr %arrayidx21, i32 0, i32 4
  %17 = load ptr, ptr %Af22, align 8
  %18 = load ptr, ptr %Af.addr, align 8
  %19 = load i32, ptr %AfSz.addr, align 4
  %call23 = call i32 @wc_ecc_cmp_param(ptr noundef %17, ptr noundef %18, i32 noundef %19, i32 noundef 2)
  %cmp24 = icmp eq i32 %call23, 0
  br i1 %cmp24, label %land.lhs.true25, label %if.end55

land.lhs.true25:                                  ; preds = %land.lhs.true
  %20 = load i32, ptr %idx, align 4
  %idxprom26 = sext i32 %20 to i64
  %arrayidx27 = getelementptr inbounds [6 x %struct.ecc_set_type], ptr @ecc_sets, i64 0, i64 %idxprom26
  %Bf28 = getelementptr inbounds %struct.ecc_set_type, ptr %arrayidx27, i32 0, i32 5
  %21 = load ptr, ptr %Bf28, align 8
  %22 = load ptr, ptr %Bf.addr, align 8
  %23 = load i32, ptr %BfSz.addr, align 4
  %call29 = call i32 @wc_ecc_cmp_param(ptr noundef %21, ptr noundef %22, i32 noundef %23, i32 noundef 2)
  %cmp30 = icmp eq i32 %call29, 0
  br i1 %cmp30, label %land.lhs.true31, label %if.end55

land.lhs.true31:                                  ; preds = %land.lhs.true25
  %24 = load i32, ptr %idx, align 4
  %idxprom32 = sext i32 %24 to i64
  %arrayidx33 = getelementptr inbounds [6 x %struct.ecc_set_type], ptr @ecc_sets, i64 0, i64 %idxprom32
  %order34 = getelementptr inbounds %struct.ecc_set_type, ptr %arrayidx33, i32 0, i32 6
  %25 = load ptr, ptr %order34, align 8
  %26 = load ptr, ptr %order.addr, align 8
  %27 = load i32, ptr %orderSz.addr, align 4
  %call35 = call i32 @wc_ecc_cmp_param(ptr noundef %25, ptr noundef %26, i32 noundef %27, i32 noundef 2)
  %cmp36 = icmp eq i32 %call35, 0
  br i1 %cmp36, label %land.lhs.true37, label %if.end55

land.lhs.true37:                                  ; preds = %land.lhs.true31
  %28 = load i32, ptr %idx, align 4
  %idxprom38 = sext i32 %28 to i64
  %arrayidx39 = getelementptr inbounds [6 x %struct.ecc_set_type], ptr @ecc_sets, i64 0, i64 %idxprom38
  %Gx40 = getelementptr inbounds %struct.ecc_set_type, ptr %arrayidx39, i32 0, i32 7
  %29 = load ptr, ptr %Gx40, align 8
  %30 = load ptr, ptr %Gx.addr, align 8
  %31 = load i32, ptr %GxSz.addr, align 4
  %call41 = call i32 @wc_ecc_cmp_param(ptr noundef %29, ptr noundef %30, i32 noundef %31, i32 noundef 2)
  %cmp42 = icmp eq i32 %call41, 0
  br i1 %cmp42, label %land.lhs.true43, label %if.end55

land.lhs.true43:                                  ; preds = %land.lhs.true37
  %32 = load i32, ptr %idx, align 4
  %idxprom44 = sext i32 %32 to i64
  %arrayidx45 = getelementptr inbounds [6 x %struct.ecc_set_type], ptr @ecc_sets, i64 0, i64 %idxprom44
  %Gy46 = getelementptr inbounds %struct.ecc_set_type, ptr %arrayidx45, i32 0, i32 8
  %33 = load ptr, ptr %Gy46, align 8
  %34 = load ptr, ptr %Gy.addr, align 8
  %35 = load i32, ptr %GySz.addr, align 4
  %call47 = call i32 @wc_ecc_cmp_param(ptr noundef %33, ptr noundef %34, i32 noundef %35, i32 noundef 2)
  %cmp48 = icmp eq i32 %call47, 0
  br i1 %cmp48, label %land.lhs.true49, label %if.end55

land.lhs.true49:                                  ; preds = %land.lhs.true43
  %36 = load i32, ptr %cofactor.addr, align 4
  %37 = load i32, ptr %idx, align 4
  %idxprom50 = sext i32 %37 to i64
  %arrayidx51 = getelementptr inbounds [6 x %struct.ecc_set_type], ptr @ecc_sets, i64 0, i64 %idxprom50
  %cofactor52 = getelementptr inbounds %struct.ecc_set_type, ptr %arrayidx51, i32 0, i32 12
  %38 = load i32, ptr %cofactor52, align 8
  %cmp53 = icmp eq i32 %36, %38
  br i1 %cmp53, label %if.then54, label %if.end55

if.then54:                                        ; preds = %land.lhs.true49
  br label %for.end

if.end55:                                         ; preds = %land.lhs.true49, %land.lhs.true43, %land.lhs.true37, %land.lhs.true31, %land.lhs.true25, %land.lhs.true, %if.then15
  br label %if.end56

if.end56:                                         ; preds = %if.end55, %for.body
  br label %for.inc

for.inc:                                          ; preds = %if.end56
  %39 = load i32, ptr %idx, align 4
  %inc = add nsw i32 %39, 1
  store i32 %inc, ptr %idx, align 4
  br label %for.cond, !llvm.loop !14

for.end:                                          ; preds = %if.then54, %for.cond
  %40 = load i32, ptr %idx, align 4
  %idxprom57 = sext i32 %40 to i64
  %arrayidx58 = getelementptr inbounds [6 x %struct.ecc_set_type], ptr @ecc_sets, i64 0, i64 %idxprom57
  %size59 = getelementptr inbounds %struct.ecc_set_type, ptr %arrayidx58, i32 0, i32 0
  %41 = load i32, ptr %size59, align 8
  %cmp60 = icmp eq i32 %41, 0
  br i1 %cmp60, label %if.then61, label %if.end62

if.then61:                                        ; preds = %for.end
  store i32 -1, ptr %retval, align 4
  br label %return

if.end62:                                         ; preds = %for.end
  %42 = load i32, ptr %idx, align 4
  %idxprom63 = sext i32 %42 to i64
  %arrayidx64 = getelementptr inbounds [6 x %struct.ecc_set_type], ptr @ecc_sets, i64 0, i64 %idxprom63
  %id = getelementptr inbounds %struct.ecc_set_type, ptr %arrayidx64, i32 0, i32 1
  %43 = load i32, ptr %id, align 4
  store i32 %43, ptr %retval, align 4
  br label %return

return:                                           ; preds = %if.end62, %if.then61, %if.then
  %44 = load i32, ptr %retval, align 4
  ret i32 %44
}