; Function Attrs: nounwind uwtable
define i32 @wc_ecc_get_curve_id_from_params(i32 noundef %fieldSize, ptr noundef %prime, i32 noundef %primeSz, ptr noundef %Af, i32 noundef %AfSz, ptr noundef %Bf, i32 noundef %BfSz, ptr noundef %order, i32 noundef %orderSz, ptr noundef %Gx, i32 noundef %GxSz, ptr noundef %Gy, i32 noundef %GySz, i32 noundef %cofactor) local_unnamed_addr #2 {
entry:
  %cmp = icmp eq ptr %prime, null
  %cmp1 = icmp eq ptr %Af, null
  %or.cond = or i1 %cmp, %cmp1
  %cmp3 = icmp eq ptr %Bf, null
  %or.cond1 = or i1 %or.cond, %cmp3
  %cmp5 = icmp eq ptr %order, null
  %or.cond2 = or i1 %or.cond1, %cmp5
  %cmp7 = icmp eq ptr %Gx, null
  %or.cond3 = or i1 %or.cond2, %cmp7
  %cmp9 = icmp eq ptr %Gy, null
  %or.cond4 = or i1 %or.cond3, %cmp9
  br i1 %or.cond4, label %return, label %if.end

if.end:                                           ; preds = %entry
  %add = add nsw i32 %fieldSize, 1
  %div = sdiv i32 %add, 8
  br label %for.body

for.body:                                         ; preds = %if.end, %for.inc
  %indvars.iv = phi i64 [ 0, %if.end ], [ %indvars.iv.next, %for.inc ]
  %0 = phi i32 [ 28, %if.end ], [ %8, %for.inc ]
  %arrayidx24 = phi ptr [ @ecc_sets, %if.end ], [ %arrayidx, %for.inc ]
  %cmp14 = icmp eq i32 %div, %0
  br i1 %cmp14, label %if.then15, label %for.inc

if.then15:                                        ; preds = %for.body
  %prime18 = getelementptr inbounds nuw i8, ptr %arrayidx24, i64 16
  %1 = load ptr, ptr %prime18, align 8
  %call = tail call fastcc i32 @wc_ecc_cmp_param(ptr noundef %1, ptr noundef %prime, i32 noundef %primeSz, i32 noundef 2)
  %cmp19 = icmp eq i32 %call, 0
  br i1 %cmp19, label %land.lhs.true, label %for.inc

land.lhs.true:                                    ; preds = %if.then15
  %Af22 = getelementptr inbounds nuw i8, ptr %arrayidx24, i64 24
  %2 = load ptr, ptr %Af22, align 8
  %call23 = tail call fastcc i32 @wc_ecc_cmp_param(ptr noundef %2, ptr noundef %Af, i32 noundef %AfSz, i32 noundef 2)
  %cmp24 = icmp eq i32 %call23, 0
  br i1 %cmp24, label %land.lhs.true25, label %for.inc

land.lhs.true25:                                  ; preds = %land.lhs.true
  %Bf28 = getelementptr inbounds nuw i8, ptr %arrayidx24, i64 32
  %3 = load ptr, ptr %Bf28, align 8
  %call29 = tail call fastcc i32 @wc_ecc_cmp_param(ptr noundef %3, ptr noundef %Bf, i32 noundef %BfSz, i32 noundef 2)
  %cmp30 = icmp eq i32 %call29, 0
  br i1 %cmp30, label %land.lhs.true31, label %for.inc

land.lhs.true31:                                  ; preds = %land.lhs.true25
  %order34 = getelementptr inbounds nuw i8, ptr %arrayidx24, i64 40
  %4 = load ptr, ptr %order34, align 8
  %call35 = tail call fastcc i32 @wc_ecc_cmp_param(ptr noundef %4, ptr noundef %order, i32 noundef %orderSz, i32 noundef 2)
  %cmp36 = icmp eq i32 %call35, 0
  br i1 %cmp36, label %land.lhs.true37, label %for.inc

land.lhs.true37:                                  ; preds = %land.lhs.true31
  %Gx40 = getelementptr inbounds nuw i8, ptr %arrayidx24, i64 48
  %5 = load ptr, ptr %Gx40, align 8
  %call41 = tail call fastcc i32 @wc_ecc_cmp_param(ptr noundef %5, ptr noundef %Gx, i32 noundef %GxSz, i32 noundef 2)
  %cmp42 = icmp eq i32 %call41, 0
  br i1 %cmp42, label %land.lhs.true43, label %for.inc

land.lhs.true43:                                  ; preds = %land.lhs.true37
  %Gy46 = getelementptr inbounds nuw i8, ptr %arrayidx24, i64 56
  %6 = load ptr, ptr %Gy46, align 8
  %call47 = tail call fastcc i32 @wc_ecc_cmp_param(ptr noundef %6, ptr noundef %Gy, i32 noundef %GySz, i32 noundef 2)
  %cmp48 = icmp eq i32 %call47, 0
  br i1 %cmp48, label %land.lhs.true49, label %for.inc

land.lhs.true49:                                  ; preds = %land.lhs.true43
  %cofactor52 = getelementptr inbounds nuw i8, ptr %arrayidx24, i64 80
  %7 = load i32, ptr %cofactor52, align 8
  %cmp53 = icmp eq i32 %cofactor, %7
  br i1 %cmp53, label %if.end62, label %for.inc

for.inc:                                          ; preds = %for.body, %land.lhs.true49, %land.lhs.true43, %land.lhs.true37, %land.lhs.true31, %land.lhs.true25, %land.lhs.true, %if.then15
  %indvars.iv.next = add nuw nsw i64 %indvars.iv, 1
  %arrayidx = getelementptr inbounds nuw [6 x %struct.ecc_set_type], ptr @ecc_sets, i64 0, i64 %indvars.iv.next
  %8 = load i32, ptr %arrayidx, align 8
  %exitcond = icmp eq i64 %indvars.iv.next, 5
  br i1 %exitcond, label %return, label %for.body, !llvm.loop !13

if.end62:                                         ; preds = %land.lhs.true49
  %id = getelementptr inbounds nuw i8, ptr %arrayidx24, i64 4
  %9 = load i32, ptr %id, align 4
  br label %return

return:                                           ; preds = %for.inc, %entry, %if.end62
  %retval.0 = phi i32 [ %9, %if.end62 ], [ -173, %entry ], [ -1, %for.inc ]
  ret i32 %retval.0
}